target datalayout = "e-m:e-p270:32:32-p271:32:32-p272:64:64-i64:64-i128:128-f80:128-n8:16:32:64-S128"
target triple = "x86_64-pc-linux-gnu"

%"class.triggers::trigger_t" = type <{ ptr, i64, i8, i8, i8, i8, i8, [3 x i8], i32, i32, i32, i32, i32, [4 x i8] }>

; Function Attrs: mustprogress nounwind uwtable
define noundef zeroext i1 @_ZNK8triggers9trigger_t10mode_matchEmb(ptr noundef nonnull align 8 dereferenceable(44) %0, i64 noundef %1, i1 noundef zeroext %2) #4 align 2 {
  %4 = alloca i1, align 1
  %5 = alloca ptr, align 8
  %6 = alloca i64, align 8
  %7 = alloca i8, align 1
  store ptr %0, ptr %5, align 8, !tbaa !3
  store i64 %1, ptr %6, align 8, !tbaa !16
  %8 = zext i1 %2 to i8
  store i8 %8, ptr %7, align 1, !tbaa !17
  %9 = load ptr, ptr %5, align 8
  %10 = load i64, ptr %6, align 8, !tbaa !16
  switch i64 %10, label %41 [
    i64 3, label %11
    i64 1, label %15
    i64 0, label %28
  ]

11:                                               ; preds = %3
  %12 = getelementptr inbounds nuw %"class.triggers::trigger_t", ptr %9, i32 0, i32 4
  %13 = load i8, ptr %12, align 2, !tbaa !163, !range !18, !noundef !19
  %14 = trunc i8 %13 to i1
  store i1 %14, ptr %4, align 1
  br label %43

15:                                               ; preds = %3
  %16 = load i8, ptr %7, align 1, !tbaa !17, !range !18, !noundef !19
  %17 = trunc i8 %16 to i1
  br i1 %17, label %18, label %22

18:                                               ; preds = %15
  %19 = getelementptr inbounds nuw %"class.triggers::trigger_t", ptr %9, i32 0, i32 2
  %20 = load i8, ptr %19, align 8, !tbaa !164, !range !18, !noundef !19
  %21 = trunc i8 %20 to i1
  br label %26

22:                                               ; preds = %15
  %23 = getelementptr inbounds nuw %"class.triggers::trigger_t", ptr %9, i32 0, i32 5
  %24 = load i8, ptr %23, align 1, !tbaa !165, !range !18, !noundef !19
  %25 = trunc i8 %24 to i1
  br label %26

26:                                               ; preds = %22, %18
  %27 = phi i1 [ %21, %18 ], [ %25, %22 ]
  store i1 %27, ptr %4, align 1
  br label %43

28:                                               ; preds = %3
  %29 = load i8, ptr %7, align 1, !tbaa !17, !range !18, !noundef !19
  %30 = trunc i8 %29 to i1
  br i1 %30, label %31, label %35

31:                                               ; preds = %28
  %32 = getelementptr inbounds nuw %"class.triggers::trigger_t", ptr %9, i32 0, i32 3
  %33 = load i8, ptr %32, align 1, !tbaa !166, !range !18, !noundef !19
  %34 = trunc i8 %33 to i1
  br label %39

35:                                               ; preds = %28
  %36 = getelementptr inbounds nuw %"class.triggers::trigger_t", ptr %9, i32 0, i32 6
  %37 = load i8, ptr %36, align 4, !tbaa !167, !range !18, !noundef !19
  %38 = trunc i8 %37 to i1
  br label %39

39:                                               ; preds = %35, %31
  %40 = phi i1 [ %34, %31 ], [ %38, %35 ]
  store i1 %40, ptr %4, align 1
  br label %43

41:                                               ; preds = %3
  br label %42

42:                                               ; preds = %41
  unreachable

43:                                               ; preds = %39, %26, %11
  %44 = load i1, ptr %4, align 1
  ret i1 %44
}