; Function Attrs: mustprogress nofree norecurse nosync nounwind willreturn memory(argmem: read) uwtable
define noundef zeroext i1 @_ZNK8triggers9trigger_t10mode_matchEmb(ptr noundef nonnull readonly align 8 captures(none) dereferenceable(44) %0, i64 noundef %1, i1 noundef zeroext %2) local_unnamed_addr #3 align 2 {
  switch i64 %1, label %6 [
    i64 3, label %7
    i64 1, label %4
    i64 0, label %5
  ]

4:                                                ; preds = %3
  %.in4.in.v = select i1 %2, i64 16, i64 19
  br label %7

5:                                                ; preds = %3
  %.in.in.v = select i1 %2, i64 17, i64 20
  br label %7

6:                                                ; preds = %3
  unreachable

7:                                                ; preds = %3, %5, %4
  %.in.in.v.sink = phi i64 [ %.in.in.v, %5 ], [ %.in4.in.v, %4 ], [ 18, %3 ]
  %.in.in = getelementptr inbounds nuw i8, ptr %0, i64 %.in.in.v.sink
  %.0.in = load i8, ptr %.in.in, align 1, !tbaa !146, !range !14, !noundef !15
  %.0 = trunc nuw i8 %.0.in to i1
  ret i1 %.0
}